target datalayout = "e-m:e-p270:32:32-p271:32:32-p272:64:64-i64:64-i128:128-f80:128-n8:16:32:64-S128"
target triple = "x86_64-unknown-linux-gnu"

%struct.UCPTrie = type { ptr, %union.UCPTrieData, i32, i32, i32, i16, i8, i8, i32, i16, i16, i32, i32 }
%union.UCPTrieData = type { ptr }
%"class.icu_75::UObject" = type { ptr }
%"struct.icu_75::UInitOnce" = type { %"struct.std::atomic", i32 }
%"struct.std::atomic" = type { %"struct.std::__atomic_base" }
%"struct.std::__atomic_base" = type { i32 }
%"class.icu_75::Normalizer2WithImpl" = type { %"class.icu_75::Normalizer2", ptr }
%"class.icu_75::Normalizer2" = type { %"class.icu_75::UObject" }
%"struct.icu_75::Norm2AllModes" = type { ptr, %"class.icu_75::ComposeNormalizer2", %"class.icu_75::DecomposeNormalizer2", %"class.icu_75::FCDNormalizer2", %"class.icu_75::ComposeNormalizer2" }
%"class.icu_75::DecomposeNormalizer2" = type { %"class.icu_75::Normalizer2WithImpl" }
%"class.icu_75::FCDNormalizer2" = type { %"class.icu_75::Normalizer2WithImpl" }
%"class.icu_75::ComposeNormalizer2" = type <{ %"class.icu_75::Normalizer2WithImpl", i8, [7 x i8] }>
%"class.icu_75::Normalizer2Impl" = type { %"class.icu_75::UObject", i16, i16, i16, i16, i16, i16, i16, i16, i16, i16, i16, i16, ptr, ptr, ptr, ptr, %"struct.icu_75::UInitOnce", ptr }

@_ZL22norm2_nfc_data_indexes = internal constant [20 x i32] [i32 80, i32 19640, i32 35104, i32 35360, i32 35360, i32 35360, i32 35360, i32 35360, i32 192, i32 768, i32 2786, i32 10720, i32 15462, i32 64512, i32 4744, i32 15260, i32 15412, i32 15462, i32 768, i32 0], align 16
@_ZL19norm2_nfc_data_trie = internal constant %struct.UCPTrie { ptr @_ZL24norm2_nfc_data_trieIndex, %union.UCPTrieData { ptr @_ZL23norm2_nfc_data_trieData }, i32 1788, i32 7984, i32 195584, i16 48, i8 0, i8 0, i32 0, i16 0, i16 196, i32 550, i32 1 }, align 8
@_ZTVN6icu_757UObjectE = external unnamed_addr constant { [5 x ptr] }, align 8
@_ZTVN6icu_7515Normalizer2ImplE = external unnamed_addr constant { [5 x ptr] }, align 8
@_ZN6icu_7520DecomposeNormalizer2D1Ev = unnamed_addr alias void (ptr), ptr @_ZN6icu_7520DecomposeNormalizer2D2Ev
@_ZN6icu_7518ComposeNormalizer2D1Ev = unnamed_addr alias void (ptr), ptr @_ZN6icu_7518ComposeNormalizer2D2Ev
@_ZN6icu_7514FCDNormalizer2D1Ev = unnamed_addr alias void (ptr), ptr @_ZN6icu_7514FCDNormalizer2D2Ev

; Function Attrs: mustprogress nounwind uwtable
define linkonce_odr void @_ZN6icu_7511Normalizer2C2Ev(ptr noundef nonnull align 8 dereferenceable(8) %this) unnamed_addr #0 comdat align 2 {
entry:
  %this.addr = alloca ptr, align 8
  store ptr %this, ptr %this.addr, align 8
  %this1 = load ptr, ptr %this.addr, align 8
  call void @_ZN6icu_757UObjectC2Ev(ptr noundef nonnull align 8 dereferenceable(8) %this1) #8
  store ptr getelementptr inbounds ({ [20 x ptr] }, ptr @_ZTVN6icu_7511Normalizer2E, i32 0, i32 0, i32 2), ptr %this1, align 8
  ret void
}

; Function Attrs: mustprogress nounwind uwtable
define linkonce_odr void @_ZN6icu_7519Normalizer2WithImplC2ERKNS_15Normalizer2ImplE(ptr noundef nonnull align 8 dereferenceable(16) %this, ptr noundef nonnull align 8 dereferenceable(80) %ni) unnamed_addr #0 comdat align 2 {
entry:
  %this.addr = alloca ptr, align 8
  %ni.addr = alloca ptr, align 8
  store ptr %this, ptr %this.addr, align 8
  store ptr %ni, ptr %ni.addr, align 8
  %this1 = load ptr, ptr %this.addr, align 8
  call void @_ZN6icu_7511Normalizer2C2Ev(ptr noundef nonnull align 8 dereferenceable(8) %this1) #8
  store ptr getelementptr inbounds ({ [24 x ptr] }, ptr @_ZTVN6icu_7519Normalizer2WithImplE, i32 0, i32 0, i32 2), ptr %this1, align 8
  %impl = getelementptr inbounds %"class.icu_75::Normalizer2WithImpl", ptr %this1, i32 0, i32 1
  %0 = load ptr, ptr %ni.addr, align 8
  store ptr %0, ptr %impl, align 8
  ret void
}

; Function Attrs: mustprogress nounwind uwtable
define linkonce_odr void @_ZN6icu_7514FCDNormalizer2C2ERKNS_15Normalizer2ImplE(ptr noundef nonnull align 8 dereferenceable(16) %this, ptr noundef nonnull align 8 dereferenceable(80) %ni) unnamed_addr #0 comdat align 2 {
entry:
  %this.addr = alloca ptr, align 8
  %ni.addr = alloca ptr, align 8
  store ptr %this, ptr %this.addr, align 8
  store ptr %ni, ptr %ni.addr, align 8
  %this1 = load ptr, ptr %this.addr, align 8
  %0 = load ptr, ptr %ni.addr, align 8
  call void @_ZN6icu_7519Normalizer2WithImplC2ERKNS_15Normalizer2ImplE(ptr noundef nonnull align 8 dereferenceable(16) %this1, ptr noundef nonnull align 8 dereferenceable(80) %0)
  store ptr getelementptr inbounds ({ [24 x ptr] }, ptr @_ZTVN6icu_7514FCDNormalizer2E, i32 0, i32 0, i32 2), ptr %this1, align 8
  ret void
}

; Function Attrs: mustprogress nounwind uwtable
define linkonce_odr void @_ZN6icu_7520DecomposeNormalizer2C2ERKNS_15Normalizer2ImplE(ptr noundef nonnull align 8 dereferenceable(16) %this, ptr noundef nonnull align 8 dereferenceable(80) %ni) unnamed_addr #0 comdat align 2 {
entry:
  %this.addr = alloca ptr, align 8
  %ni.addr = alloca ptr, align 8
  store ptr %this, ptr %this.addr, align 8
  store ptr %ni, ptr %ni.addr, align 8
  %this1 = load ptr, ptr %this.addr, align 8
  %0 = load ptr, ptr %ni.addr, align 8
  call void @_ZN6icu_7519Normalizer2WithImplC2ERKNS_15Normalizer2ImplE(ptr noundef nonnull align 8 dereferenceable(16) %this1, ptr noundef nonnull align 8 dereferenceable(80) %0)
  store ptr getelementptr inbounds ({ [24 x ptr] }, ptr @_ZTVN6icu_7520DecomposeNormalizer2E, i32 0, i32 0, i32 2), ptr %this1, align 8
  ret void
}

; Function Attrs: mustprogress uwtable
define linkonce_odr void @_ZN6icu_7518ComposeNormalizer2C2ERKNS_15Normalizer2ImplEa(ptr noundef nonnull align 8 dereferenceable(17) %this, ptr noundef nonnull align 8 dereferenceable(80) %ni, i8 noundef signext %fcc) unnamed_addr #3 comdat align 2 {
entry:
  %this.addr = alloca ptr, align 8
  %ni.addr = alloca ptr, align 8
  %fcc.addr = alloca i8, align 1
  store ptr %this, ptr %this.addr, align 8
  store ptr %ni, ptr %ni.addr, align 8
  store i8 %fcc, ptr %fcc.addr, align 1
  %this1 = load ptr, ptr %this.addr, align 8
  %0 = load ptr, ptr %ni.addr, align 8
  call void @_ZN6icu_7519Normalizer2WithImplC2ERKNS_15Normalizer2ImplE(ptr noundef nonnull align 8 dereferenceable(16) %this1, ptr noundef nonnull align 8 dereferenceable(80) %0)
  store ptr getelementptr inbounds ({ [24 x ptr] }, ptr @_ZTVN6icu_7518ComposeNormalizer2E, i32 0, i32 0, i32 2), ptr %this1, align 8
  %onlyContiguous = getelementptr inbounds %"class.icu_75::ComposeNormalizer2", ptr %this1, i32 0, i32 1
  %1 = load i8, ptr %fcc.addr, align 1
  store i8 %1, ptr %onlyContiguous, align 8
  ret void
}

; Function Attrs: mustprogress nounwind uwtable
define linkonce_odr void @_ZNSt13__atomic_baseIiEC2Ei(ptr noundef nonnull align 4 dereferenceable(4) %this, i32 noundef %__i) unnamed_addr #0 comdat align 2 {
entry:
  %this.addr = alloca ptr, align 8
  %__i.addr = alloca i32, align 4
  store ptr %this, ptr %this.addr, align 8
  store i32 %__i, ptr %__i.addr, align 4
  %this1 = load ptr, ptr %this.addr, align 8
  %_M_i = getelementptr inbounds %"struct.std::__atomic_base", ptr %this1, i32 0, i32 0
  %0 = load i32, ptr %__i.addr, align 4
  store i32 %0, ptr %_M_i, align 4
  ret void
}

; Function Attrs: mustprogress uwtable
define linkonce_odr void @_ZN6icu_7513Norm2AllModesC2EPNS_15Normalizer2ImplE(ptr noundef nonnull align 8 dereferenceable(88) %this, ptr noundef %i) unnamed_addr #3 comdat align 2 personality ptr @__gxx_personality_v0 {
entry:
  %this.addr = alloca ptr, align 8
  %i.addr = alloca ptr, align 8
  %exn.slot = alloca ptr, align 8
  %ehselector.slot = alloca i32, align 4
  store ptr %this, ptr %this.addr, align 8
  store ptr %i, ptr %i.addr, align 8
  %this1 = load ptr, ptr %this.addr, align 8
  %impl = getelementptr inbounds %"struct.icu_75::Norm2AllModes", ptr %this1, i32 0, i32 0
  %0 = load ptr, ptr %i.addr, align 8
  store ptr %0, ptr %impl, align 8
  %comp = getelementptr inbounds %"struct.icu_75::Norm2AllModes", ptr %this1, i32 0, i32 1
  %1 = load ptr, ptr %i.addr, align 8
  call void @_ZN6icu_7518ComposeNormalizer2C2ERKNS_15Normalizer2ImplEa(ptr noundef nonnull align 8 dereferenceable(17) %comp, ptr noundef nonnull align 8 dereferenceable(80) %1, i8 noundef signext 0)
  %decomp = getelementptr inbounds %"struct.icu_75::Norm2AllModes", ptr %this1, i32 0, i32 2
  %2 = load ptr, ptr %i.addr, align 8
  invoke void @_ZN6icu_7520DecomposeNormalizer2C2ERKNS_15Normalizer2ImplE(ptr noundef nonnull align 8 dereferenceable(16) %decomp, ptr noundef nonnull align 8 dereferenceable(80) %2)
          to label %invoke.cont unwind label %lpad

invoke.cont:                                      ; preds = %entry
  %fcd = getelementptr inbounds %"struct.icu_75::Norm2AllModes", ptr %this1, i32 0, i32 3
  %3 = load ptr, ptr %i.addr, align 8
  invoke void @_ZN6icu_7514FCDNormalizer2C2ERKNS_15Normalizer2ImplE(ptr noundef nonnull align 8 dereferenceable(16) %fcd, ptr noundef nonnull align 8 dereferenceable(80) %3)
          to label %invoke.cont3 unwind label %lpad2

invoke.cont3:                                     ; preds = %invoke.cont
  %fcc = getelementptr inbounds %"struct.icu_75::Norm2AllModes", ptr %this1, i32 0, i32 4
  %4 = load ptr, ptr %i.addr, align 8
  invoke void @_ZN6icu_7518ComposeNormalizer2C2ERKNS_15Normalizer2ImplEa(ptr noundef nonnull align 8 dereferenceable(17) %fcc, ptr noundef nonnull align 8 dereferenceable(80) %4, i8 noundef signext 1)
          to label %invoke.cont5 unwind label %lpad4

invoke.cont5:                                     ; preds = %invoke.cont3
  ret void

lpad:                                             ; preds = %entry
  %5 = landingpad { ptr, i32 }
          cleanup
  %6 = extractvalue { ptr, i32 } %5, 0
  store ptr %6, ptr %exn.slot, align 8
  %7 = extractvalue { ptr, i32 } %5, 1
  store i32 %7, ptr %ehselector.slot, align 4
  br label %ehcleanup6

lpad2:                                            ; preds = %invoke.cont
  %8 = landingpad { ptr, i32 }
          cleanup
  %9 = extractvalue { ptr, i32 } %8, 0
  store ptr %9, ptr %exn.slot, align 8
  %10 = extractvalue { ptr, i32 } %8, 1
  store i32 %10, ptr %ehselector.slot, align 4
  br label %ehcleanup

lpad4:                                            ; preds = %invoke.cont3
  %11 = landingpad { ptr, i32 }
          cleanup
  %12 = extractvalue { ptr, i32 } %11, 0
  store ptr %12, ptr %exn.slot, align 8
  %13 = extractvalue { ptr, i32 } %11, 1
  store i32 %13, ptr %ehselector.slot, align 4
  call void @_ZN6icu_7514FCDNormalizer2D1Ev(ptr noundef nonnull align 8 dereferenceable(16) %fcd) #8
  br label %ehcleanup

ehcleanup:                                        ; preds = %lpad4, %lpad2
  call void @_ZN6icu_7520DecomposeNormalizer2D1Ev(ptr noundef nonnull align 8 dereferenceable(16) %decomp) #8
  br label %ehcleanup6

ehcleanup6:                                       ; preds = %ehcleanup, %lpad
  call void @_ZN6icu_7518ComposeNormalizer2D1Ev(ptr noundef nonnull align 8 dereferenceable(17) %comp) #8
  br label %eh.resume

eh.resume:                                        ; preds = %ehcleanup6
  %exn = load ptr, ptr %exn.slot, align 8
  %sel = load i32, ptr %ehselector.slot, align 4
  %lpad.val = insertvalue { ptr, i32 } poison, ptr %exn, 0
  %lpad.val7 = insertvalue { ptr, i32 } %lpad.val, i32 %sel, 1
  resume { ptr, i32 } %lpad.val7
}

; Function Attrs: mustprogress nounwind uwtable
define linkonce_odr void @_ZNSt6atomicIiEC2Ei(ptr noundef nonnull align 4 dereferenceable(4) %this, i32 noundef %__i) unnamed_addr #0 comdat align 2 {
entry:
  %this.addr = alloca ptr, align 8
  %__i.addr = alloca i32, align 4
  store ptr %this, ptr %this.addr, align 8
  store i32 %__i, ptr %__i.addr, align 4
  %this1 = load ptr, ptr %this.addr, align 8
  %0 = load i32, ptr %__i.addr, align 4
  call void @_ZNSt13__atomic_baseIiEC2Ei(ptr noundef nonnull align 4 dereferenceable(4) %this1, i32 noundef %0) #8
  ret void
}

; Function Attrs: mustprogress nounwind uwtable
define linkonce_odr void @_ZN6icu_757UObjectC2Ev(ptr noundef nonnull align 8 dereferenceable(8) %this) unnamed_addr #0 comdat align 2 {
entry:
  %this.addr = alloca ptr, align 8
  store ptr %this, ptr %this.addr, align 8
  %this1 = load ptr, ptr %this.addr, align 8
  store ptr getelementptr inbounds ({ [5 x ptr] }, ptr @_ZTVN6icu_757UObjectE, i32 0, i32 0, i32 2), ptr %this1, align 8
  ret void
}

; Function Attrs: mustprogress uwtable
define noundef ptr @_ZN6icu_7513Norm2AllModes14createInstanceEPNS_15Normalizer2ImplER10UErrorCode(ptr noundef %impl, ptr noundef nonnull align 4 dereferenceable(4) %errorCode) #3 align 2 personality ptr @__gxx_personality_v0 {
entry:
  %retval = alloca ptr, align 8
  %impl.addr = alloca ptr, align 8
  %errorCode.addr = alloca ptr, align 8
  %allModes = alloca ptr, align 8
  %saved-rvalue = alloca ptr, align 8
  %cleanup.cond = alloca i1, align 1
  %exn.slot = alloca ptr, align 8
  %ehselector.slot = alloca i32, align 4
  store ptr %impl, ptr %impl.addr, align 8
  store ptr %errorCode, ptr %errorCode.addr, align 8
  %0 = load ptr, ptr %errorCode.addr, align 8
  %1 = load i32, ptr %0, align 4
  %call = call noundef signext i8 @_ZL9U_FAILURE10UErrorCode(i32 noundef %1)
  %tobool = icmp ne i8 %call, 0
  br i1 %tobool, label %if.then, label %if.end

if.then:                                          ; preds = %entry
  %2 = load ptr, ptr %impl.addr, align 8
  %isnull = icmp eq ptr %2, null
  br i1 %isnull, label %delete.end, label %delete.notnull

delete.notnull:                                   ; preds = %if.then
  %vtable = load ptr, ptr %2, align 8
  %vfn = getelementptr inbounds ptr, ptr %vtable, i64 1
  %3 = load ptr, ptr %vfn, align 8
  call void %3(ptr noundef nonnull align 8 dereferenceable(80) %2) #8
  br label %delete.end

delete.end:                                       ; preds = %delete.notnull, %if.then
  store ptr null, ptr %retval, align 8
  br label %return

if.end:                                           ; preds = %entry
  %call1 = call noundef ptr @_ZN6icu_757UMemorynwEm(i64 noundef 88) #8
  %new.isnull = icmp eq ptr %call1, null
  store i1 false, ptr %cleanup.cond, align 1
  br i1 %new.isnull, label %new.cont, label %new.notnull

new.notnull:                                      ; preds = %if.end
  store ptr %call1, ptr %saved-rvalue, align 8
  store i1 true, ptr %cleanup.cond, align 1
  %4 = load ptr, ptr %impl.addr, align 8
  invoke void @_ZN6icu_7513Norm2AllModesC2EPNS_15Normalizer2ImplE(ptr noundef nonnull align 8 dereferenceable(88) %call1, ptr noundef %4)
          to label %invoke.cont unwind label %lpad

invoke.cont:                                      ; preds = %new.notnull
  br label %new.cont

new.cont:                                         ; preds = %invoke.cont, %if.end
  %5 = phi ptr [ %call1, %invoke.cont ], [ null, %if.end ]
  store ptr %5, ptr %allModes, align 8
  %6 = load ptr, ptr %allModes, align 8
  %cmp = icmp eq ptr %6, null
  br i1 %cmp, label %if.then2, label %if.end8

if.then2:                                         ; preds = %new.cont
  %7 = load ptr, ptr %errorCode.addr, align 8
  store i32 7, ptr %7, align 4
  %8 = load ptr, ptr %impl.addr, align 8
  %isnull3 = icmp eq ptr %8, null
  br i1 %isnull3, label %delete.end7, label %delete.notnull4

delete.notnull4:                                  ; preds = %if.then2
  %vtable5 = load ptr, ptr %8, align 8
  %vfn6 = getelementptr inbounds ptr, ptr %vtable5, i64 1
  %9 = load ptr, ptr %vfn6, align 8
  call void %9(ptr noundef nonnull align 8 dereferenceable(80) %8) #8
  br label %delete.end7

delete.end7:                                      ; preds = %delete.notnull4, %if.then2
  store ptr null, ptr %retval, align 8
  br label %return

lpad:                                             ; preds = %new.notnull
  %10 = landingpad { ptr, i32 }
          cleanup
  %11 = extractvalue { ptr, i32 } %10, 0
  store ptr %11, ptr %exn.slot, align 8
  %12 = extractvalue { ptr, i32 } %10, 1
  store i32 %12, ptr %ehselector.slot, align 4
  %cleanup.is_active = load i1, ptr %cleanup.cond, align 1
  br i1 %cleanup.is_active, label %cleanup.action, label %cleanup.done

cleanup.action:                                   ; preds = %lpad
  %13 = load ptr, ptr %saved-rvalue, align 8
  call void @_ZN6icu_757UMemorydlEPv(ptr noundef %13) #8
  br label %cleanup.done

cleanup.done:                                     ; preds = %cleanup.action, %lpad
  br label %eh.resume

if.end8:                                          ; preds = %new.cont
  %14 = load ptr, ptr %allModes, align 8
  store ptr %14, ptr %retval, align 8
  br label %return

return:                                           ; preds = %if.end8, %delete.end7, %delete.end
  %15 = load ptr, ptr %retval, align 8
  ret ptr %15

eh.resume:                                        ; preds = %cleanup.done
  %exn = load ptr, ptr %exn.slot, align 8
  %sel = load i32, ptr %ehselector.slot, align 4
  %lpad.val = insertvalue { ptr, i32 } poison, ptr %exn, 0
  %lpad.val9 = insertvalue { ptr, i32 } %lpad.val, i32 %sel, 1
  resume { ptr, i32 } %lpad.val9
}

; Function Attrs: mustprogress nounwind uwtable
define linkonce_odr void @_ZN6icu_7515Normalizer2ImplC2Ev(ptr noundef nonnull align 8 dereferenceable(80) %this) unnamed_addr #0 comdat align 2 {
entry:
  %this.addr = alloca ptr, align 8
  store ptr %this, ptr %this.addr, align 8
  %this1 = load ptr, ptr %this.addr, align 8
  call void @_ZN6icu_757UObjectC2Ev(ptr noundef nonnull align 8 dereferenceable(8) %this1) #8
  store ptr getelementptr inbounds ({ [5 x ptr] }, ptr @_ZTVN6icu_7515Normalizer2ImplE, i32 0, i32 0, i32 2), ptr %this1, align 8
  %normTrie = getelementptr inbounds %"class.icu_75::Normalizer2Impl", ptr %this1, i32 0, i32 13
  store ptr null, ptr %normTrie, align 8
  %fCanonIterDataInitOnce = getelementptr inbounds %"class.icu_75::Normalizer2Impl", ptr %this1, i32 0, i32 17
  %fState = getelementptr inbounds %"struct.icu_75::UInitOnce", ptr %fCanonIterDataInitOnce, i32 0, i32 0
  call void @_ZNSt6atomicIiEC2Ei(ptr noundef nonnull align 4 dereferenceable(4) %fState, i32 noundef 0) #8
  %fErrCode = getelementptr inbounds %"struct.icu_75::UInitOnce", ptr %fCanonIterDataInitOnce, i32 0, i32 1
  store i32 0, ptr %fErrCode, align 4
  %fCanonIterData = getelementptr inbounds %"class.icu_75::Normalizer2Impl", ptr %this1, i32 0, i32 18
  store ptr null, ptr %fCanonIterData, align 8
  ret void
}

; Function Attrs: mustprogress nounwind uwtable
define internal noundef signext i8 @_ZL9U_FAILURE10UErrorCode(i32 noundef %code) #0 {
entry:
  %code.addr = alloca i32, align 4
  store i32 %code, ptr %code.addr, align 4
  %0 = load i32, ptr %code.addr, align 4
  %cmp = icmp sgt i32 %0, 0
  %conv = zext i1 %cmp to i8
  ret i8 %conv
}

; Function Attrs: mustprogress uwtable
define noundef ptr @_ZN6icu_7513Norm2AllModes17createNFCInstanceER10UErrorCode(ptr noundef nonnull align 4 dereferenceable(4) %errorCode) #3 align 2 personality ptr @__gxx_personality_v0 {
entry:
  %retval = alloca ptr, align 8
  %errorCode.addr = alloca ptr, align 8
  %impl = alloca ptr, align 8
  %saved-rvalue = alloca ptr, align 8
  %cleanup.cond = alloca i1, align 1
  %exn.slot = alloca ptr, align 8
  %ehselector.slot = alloca i32, align 4
  store ptr %errorCode, ptr %errorCode.addr, align 8
  %0 = load ptr, ptr %errorCode.addr, align 8
  %1 = load i32, ptr %0, align 4
  %call = call noundef signext i8 @_ZL9U_FAILURE10UErrorCode(i32 noundef %1)
  %tobool = icmp ne i8 %call, 0
  br i1 %tobool, label %if.then, label %if.end

if.then:                                          ; preds = %entry
  store ptr null, ptr %retval, align 8
  br label %return

if.end:                                           ; preds = %entry
  %call1 = call noundef ptr @_ZN6icu_757UMemorynwEm(i64 noundef 80) #8
  %new.isnull = icmp eq ptr %call1, null
  store i1 false, ptr %cleanup.cond, align 1
  br i1 %new.isnull, label %new.cont, label %new.notnull

new.notnull:                                      ; preds = %if.end
  store ptr %call1, ptr %saved-rvalue, align 8
  store i1 true, ptr %cleanup.cond, align 1
  invoke void @_ZN6icu_7515Normalizer2ImplC2Ev(ptr noundef nonnull align 8 dereferenceable(80) %call1)
          to label %invoke.cont unwind label %lpad

invoke.cont:                                      ; preds = %new.notnull
  br label %new.cont

new.cont:                                         ; preds = %invoke.cont, %if.end
  %2 = phi ptr [ %call1, %invoke.cont ], [ null, %if.end ]
  store ptr %2, ptr %impl, align 8
  %3 = load ptr, ptr %impl, align 8
  %cmp = icmp eq ptr %3, null
  br i1 %cmp, label %if.then2, label %if.end3

if.then2:                                         ; preds = %new.cont
  %4 = load ptr, ptr %errorCode.addr, align 8
  store i32 7, ptr %4, align 4
  store ptr null, ptr %retval, align 8
  br label %return

lpad:                                             ; preds = %new.notnull
  %5 = landingpad { ptr, i32 }
          cleanup
  %6 = extractvalue { ptr, i32 } %5, 0
  store ptr %6, ptr %exn.slot, align 8
  %7 = extractvalue { ptr, i32 } %5, 1
  store i32 %7, ptr %ehselector.slot, align 4
  %cleanup.is_active = load i1, ptr %cleanup.cond, align 1
  br i1 %cleanup.is_active, label %cleanup.action, label %cleanup.done

cleanup.action:                                   ; preds = %lpad
  %8 = load ptr, ptr %saved-rvalue, align 8
  call void @_ZN6icu_757UMemorydlEPv(ptr noundef %8) #8
  br label %cleanup.done

cleanup.done:                                     ; preds = %cleanup.action, %lpad
  br label %eh.resume

if.end3:                                          ; preds = %new.cont
  %9 = load ptr, ptr %impl, align 8
  call void @_ZN6icu_7515Normalizer2Impl4initEPKiPK7UCPTriePKtPKh(ptr noundef nonnull align 8 dereferenceable(80) %9, ptr noundef @_ZL22norm2_nfc_data_indexes, ptr noundef @_ZL19norm2_nfc_data_trie, ptr noundef @_ZL24norm2_nfc_data_extraData, ptr noundef @_ZL23norm2_nfc_data_smallFCD)
  %10 = load ptr, ptr %impl, align 8
  %11 = load ptr, ptr %errorCode.addr, align 8
  %call4 = call noundef ptr @_ZN6icu_7513Norm2AllModes14createInstanceEPNS_15Normalizer2ImplER10UErrorCode(ptr noundef %10, ptr noundef nonnull align 4 dereferenceable(4) %11)
  store ptr %call4, ptr %retval, align 8
  br label %return

return:                                           ; preds = %if.end3, %if.then2, %if.then
  %12 = load ptr, ptr %retval, align 8
  ret ptr %12

eh.resume:                                        ; preds = %cleanup.done
  %exn = load ptr, ptr %exn.slot, align 8
  %sel = load i32, ptr %ehselector.slot, align 4
  %lpad.val = insertvalue { ptr, i32 } poison, ptr %exn, 0
  %lpad.val5 = insertvalue { ptr, i32 } %lpad.val, i32 %sel, 1
  resume { ptr, i32 } %lpad.val5
}