; Function Attrs: mustprogress uwtable
define noundef ptr @_ZN6icu_7513Norm2AllModes17createNFCInstanceER10UErrorCode(ptr nocapture noundef nonnull align 4 dereferenceable(4) %errorCode) local_unnamed_addr #4 align 2 personality ptr @__gxx_personality_v0 {
entry:
  %0 = load i32, ptr %errorCode, align 4
  %cmp.i = icmp slt i32 %0, 1
  br i1 %cmp.i, label %if.end, label %return

if.end:                                           ; preds = %entry
  %call1 = tail call noundef ptr @_ZN6icu_757UMemorynwEm(i64 noundef 80) #13
  %new.isnull = icmp eq ptr %call1, null
  br i1 %new.isnull, label %if.then2, label %if.end3

if.then2:                                         ; preds = %if.end
  store i32 7, ptr %errorCode, align 4
  br label %return

if.end3:                                          ; preds = %if.end
  store ptr getelementptr inbounds ({ [5 x ptr] }, ptr @_ZTVN6icu_7515Normalizer2ImplE, i64 0, i32 0, i64 2), ptr %call1, align 8
  %normTrie.i = getelementptr inbounds i8, ptr %call1, i64 32
  store ptr null, ptr %normTrie.i, align 8
  %fCanonIterDataInitOnce.i = getelementptr inbounds i8, ptr %call1, i64 64
  tail call void @llvm.memset.p0.i64(ptr noundef nonnull align 8 dereferenceable(16) %fCanonIterDataInitOnce.i, i8 0, i64 16, i1 false)
  tail call void @_ZN6icu_7515Normalizer2Impl4initEPKiPK7UCPTriePKtPKh(ptr noundef nonnull align 8 dereferenceable(80) %call1, ptr noundef nonnull @_ZL22norm2_nfc_data_indexes, ptr noundef nonnull @_ZL19norm2_nfc_data_trie, ptr noundef nonnull @_ZL24norm2_nfc_data_extraData, ptr noundef nonnull @_ZL23norm2_nfc_data_smallFCD)
  %1 = load i32, ptr %errorCode, align 4
  %cmp.i.i = icmp slt i32 %1, 1
  br i1 %cmp.i.i, label %if.end.i, label %delete.notnull.i

delete.notnull.i:                                 ; preds = %if.end3
  %vtable.i = load ptr, ptr %call1, align 8
  %vfn.i = getelementptr inbounds i8, ptr %vtable.i, i64 8
  %2 = load ptr, ptr %vfn.i, align 8
  tail call void %2(ptr noundef nonnull align 8 dereferenceable(80) %call1) #13
  br label %return

if.end.i:                                         ; preds = %if.end3
  %call1.i = tail call noundef ptr @_ZN6icu_757UMemorynwEm(i64 noundef 88) #13
  %new.isnull.i = icmp eq ptr %call1.i, null
  br i1 %new.isnull.i, label %delete.notnull4.i, label %new.cont.i

new.cont.i:                                       ; preds = %if.end.i
  store ptr %call1, ptr %call1.i, align 8
  %comp.i.i = getelementptr inbounds i8, ptr %call1.i, i64 8
  %impl.i.i.i.i = getelementptr inbounds i8, ptr %call1.i, i64 16
  store ptr %call1, ptr %impl.i.i.i.i, align 8
  store ptr getelementptr inbounds ({ [24 x ptr] }, ptr @_ZTVN6icu_7518ComposeNormalizer2E, i64 0, i32 0, i64 2), ptr %comp.i.i, align 8
  %onlyContiguous.i.i.i = getelementptr inbounds i8, ptr %call1.i, i64 24
  store i8 0, ptr %onlyContiguous.i.i.i, align 8
  %decomp.i.i = getelementptr inbounds i8, ptr %call1.i, i64 32
  %impl.i.i5.i.i = getelementptr inbounds i8, ptr %call1.i, i64 40
  store ptr %call1, ptr %impl.i.i5.i.i, align 8
  store ptr getelementptr inbounds ({ [24 x ptr] }, ptr @_ZTVN6icu_7520DecomposeNormalizer2E, i64 0, i32 0, i64 2), ptr %decomp.i.i, align 8
  %fcd.i.i = getelementptr inbounds i8, ptr %call1.i, i64 48
  %impl.i.i6.i.i = getelementptr inbounds i8, ptr %call1.i, i64 56
  store ptr %call1, ptr %impl.i.i6.i.i, align 8
  store ptr getelementptr inbounds ({ [24 x ptr] }, ptr @_ZTVN6icu_7514FCDNormalizer2E, i64 0, i32 0, i64 2), ptr %fcd.i.i, align 8
  %fcc.i.i = getelementptr inbounds i8, ptr %call1.i, i64 64
  %impl.i.i7.i.i = getelementptr inbounds i8, ptr %call1.i, i64 72
  store ptr %call1, ptr %impl.i.i7.i.i, align 8
  store ptr getelementptr inbounds ({ [24 x ptr] }, ptr @_ZTVN6icu_7518ComposeNormalizer2E, i64 0, i32 0, i64 2), ptr %fcc.i.i, align 8
  %onlyContiguous.i8.i.i = getelementptr inbounds i8, ptr %call1.i, i64 80
  store i8 1, ptr %onlyContiguous.i8.i.i, align 8
  br label %return

delete.notnull4.i:                                ; preds = %if.end.i
  store i32 7, ptr %errorCode, align 4
  %vtable5.i = load ptr, ptr %call1, align 8
  %vfn6.i = getelementptr inbounds i8, ptr %vtable5.i, i64 8
  %3 = load ptr, ptr %vfn6.i, align 8
  tail call void %3(ptr noundef nonnull align 8 dereferenceable(80) %call1) #13
  br label %return

return:                                           ; preds = %delete.notnull4.i, %new.cont.i, %delete.notnull.i, %entry, %if.then2
  %retval.0 = phi ptr [ null, %if.then2 ], [ null, %entry ], [ null, %delete.notnull.i ], [ null, %delete.notnull4.i ], [ %call1.i, %new.cont.i ]
  ret ptr %retval.0
}